target datalayout = "e-m:e-p270:32:32-p271:32:32-p272:64:64-i64:64-i128:128-f80:128-n8:16:32:64-S128"
target triple = "x86_64-unknown-linux-gnu"

%"class.QuantLib::VolatilityBumpInstrumentJacobian" = type { %"class.QuantLib::VegaBumpCollection", %"class.std::vector.10", %"class.std::vector.15", %"class.std::valarray", i8, %"class.std::vector.20", %"class.std::vector.20", %"class.QuantLib::Matrix" }
%"class.QuantLib::VegaBumpCollection" = type <{ %"class.std::vector", %"class.boost::shared_ptr.9", i8, i8, i8, [5 x i8] }>
%"class.std::vector" = type { %"struct.std::_Vector_base" }
%"struct.std::_Vector_base" = type { %"struct.std::_Vector_base<QuantLib::VegaBumpCluster, std::allocator<QuantLib::VegaBumpCluster>>::_Vector_impl" }
%"struct.std::_Vector_base<QuantLib::VegaBumpCluster, std::allocator<QuantLib::VegaBumpCluster>>::_Vector_impl" = type { %"struct.std::_Vector_base<QuantLib::VegaBumpCluster, std::allocator<QuantLib::VegaBumpCluster>>::_Vector_impl_data" }
%"struct.std::_Vector_base<QuantLib::VegaBumpCluster, std::allocator<QuantLib::VegaBumpCluster>>::_Vector_impl_data" = type { ptr, ptr, ptr }
%"class.boost::shared_ptr.9" = type { ptr, %"class.boost::detail::shared_count" }
%"class.boost::detail::shared_count" = type { ptr }
%"class.std::vector.10" = type { %"struct.std::_Vector_base.11" }
%"struct.std::_Vector_base.11" = type { %"struct.std::_Vector_base<QuantLib::VolatilityBumpInstrumentJacobian::Swaption, std::allocator<QuantLib::VolatilityBumpInstrumentJacobian::Swaption>>::_Vector_impl" }
%"struct.std::_Vector_base<QuantLib::VolatilityBumpInstrumentJacobian::Swaption, std::allocator<QuantLib::VolatilityBumpInstrumentJacobian::Swaption>>::_Vector_impl" = type { %"struct.std::_Vector_base<QuantLib::VolatilityBumpInstrumentJacobian::Swaption, std::allocator<QuantLib::VolatilityBumpInstrumentJacobian::Swaption>>::_Vector_impl_data" }
%"struct.std::_Vector_base<QuantLib::VolatilityBumpInstrumentJacobian::Swaption, std::allocator<QuantLib::VolatilityBumpInstrumentJacobian::Swaption>>::_Vector_impl_data" = type { ptr, ptr, ptr }
%"class.std::vector.15" = type { %"struct.std::_Vector_base.16" }
%"struct.std::_Vector_base.16" = type { %"struct.std::_Vector_base<QuantLib::VolatilityBumpInstrumentJacobian::Cap, std::allocator<QuantLib::VolatilityBumpInstrumentJacobian::Cap>>::_Vector_impl" }
%"struct.std::_Vector_base<QuantLib::VolatilityBumpInstrumentJacobian::Cap, std::allocator<QuantLib::VolatilityBumpInstrumentJacobian::Cap>>::_Vector_impl" = type { %"struct.std::_Vector_base<QuantLib::VolatilityBumpInstrumentJacobian::Cap, std::allocator<QuantLib::VolatilityBumpInstrumentJacobian::Cap>>::_Vector_impl_data" }
%"struct.std::_Vector_base<QuantLib::VolatilityBumpInstrumentJacobian::Cap, std::allocator<QuantLib::VolatilityBumpInstrumentJacobian::Cap>>::_Vector_impl_data" = type { ptr, ptr, ptr }
%"class.std::valarray" = type { i64, ptr }
%"class.std::vector.20" = type { %"struct.std::_Vector_base.21" }
%"struct.std::_Vector_base.21" = type { %"struct.std::_Vector_base<std::vector<double>, std::allocator<std::vector<double>>>::_Vector_impl" }
%"struct.std::_Vector_base<std::vector<double>, std::allocator<std::vector<double>>>::_Vector_impl" = type { %"struct.std::_Vector_base<std::vector<double>, std::allocator<std::vector<double>>>::_Vector_impl_data" }
%"struct.std::_Vector_base<std::vector<double>, std::allocator<std::vector<double>>>::_Vector_impl_data" = type { ptr, ptr, ptr }
%"class.QuantLib::Matrix" = type { %"class.std::unique_ptr", i64, i64 }
%"class.std::unique_ptr" = type { %"struct.std::__uniq_ptr_data" }
%"struct.std::__uniq_ptr_data" = type { %"class.std::__uniq_ptr_impl" }
%"class.std::__uniq_ptr_impl" = type { %"class.std::tuple" }
%"class.std::tuple" = type { %"struct.std::_Tuple_impl" }
%"struct.std::_Tuple_impl" = type { %"struct.std::_Head_base.26" }
%"struct.std::_Head_base.26" = type { ptr }
%"class.QuantLib::OrthogonalizedBumpFinder" = type { %"class.QuantLib::VolatilityBumpInstrumentJacobian", double, double }

; Function Attrs: mustprogress uwtable
define void @_ZN8QuantLib24OrthogonalizedBumpFinderC2ERKNS_18VegaBumpCollectionERKSt6vectorINS_32VolatilityBumpInstrumentJacobian8SwaptionESaIS6_EERKS4_INS5_3CapESaISB_EEdd(ptr noundef nonnull align 8 dereferenceable(208) %this, ptr noundef nonnull align 8 dereferenceable(43) %bumps, ptr noundef nonnull align 8 dereferenceable(24) %swaptions, ptr noundef nonnull align 8 dereferenceable(24) %caps, double noundef %multiplierCutOff, double noundef %tolerance) unnamed_addr #2 align 2 {
entry:
  %this.addr = alloca ptr, align 8
  %bumps.addr = alloca ptr, align 8
  %swaptions.addr = alloca ptr, align 8
  %caps.addr = alloca ptr, align 8
  %multiplierCutOff.addr = alloca double, align 8
  %tolerance.addr = alloca double, align 8
  store ptr %this, ptr %this.addr, align 8, !tbaa !3
  store ptr %bumps, ptr %bumps.addr, align 8, !tbaa !3
  store ptr %swaptions, ptr %swaptions.addr, align 8, !tbaa !3
  store ptr %caps, ptr %caps.addr, align 8, !tbaa !3
  store double %multiplierCutOff, ptr %multiplierCutOff.addr, align 8, !tbaa !56
  store double %tolerance, ptr %tolerance.addr, align 8, !tbaa !56
  %this1 = load ptr, ptr %this.addr, align 8
  %derivativesProducer_ = getelementptr inbounds nuw %"class.QuantLib::OrthogonalizedBumpFinder", ptr %this1, i32 0, i32 0
  %0 = load ptr, ptr %bumps.addr, align 8, !tbaa !3
  %1 = load ptr, ptr %swaptions.addr, align 8, !tbaa !3
  %2 = load ptr, ptr %caps.addr, align 8, !tbaa !3
  call void @_ZN8QuantLib32VolatilityBumpInstrumentJacobianC1ERKNS_18VegaBumpCollectionERKSt6vectorINS0_8SwaptionESaIS5_EERKS4_INS0_3CapESaISA_EE(ptr noundef nonnull align 8 dereferenceable(192) %derivativesProducer_, ptr noundef nonnull align 8 dereferenceable(43) %0, ptr noundef nonnull align 8 dereferenceable(24) %1, ptr noundef nonnull align 8 dereferenceable(24) %2)
  %multiplierCutOff_ = getelementptr inbounds nuw %"class.QuantLib::OrthogonalizedBumpFinder", ptr %this1, i32 0, i32 1
  %3 = load double, ptr %multiplierCutOff.addr, align 8, !tbaa !56
  store double %3, ptr %multiplierCutOff_, align 8, !tbaa !86
  %tolerance_ = getelementptr inbounds nuw %"class.QuantLib::OrthogonalizedBumpFinder", ptr %this1, i32 0, i32 2
  %4 = load double, ptr %tolerance.addr, align 8, !tbaa !56
  store double %4, ptr %tolerance_, align 8, !tbaa !88
  ret void
}