; Function Attrs: mustprogress uwtable
define void @_ZN8QuantLib24OrthogonalizedBumpFinderC2ERKNS_18VegaBumpCollectionERKSt6vectorINS_32VolatilityBumpInstrumentJacobian8SwaptionESaIS6_EERKS4_INS5_3CapESaISB_EEdd(ptr noundef nonnull align 8 dereferenceable(208) %this, ptr noundef nonnull align 8 dereferenceable(43) %bumps, ptr noundef nonnull align 8 dereferenceable(24) %swaptions, ptr noundef nonnull align 8 dereferenceable(24) %caps, double noundef %multiplierCutOff, double noundef %tolerance) unnamed_addr #3 align 2 {
entry:
  tail call void @_ZN8QuantLib32VolatilityBumpInstrumentJacobianC1ERKNS_18VegaBumpCollectionERKSt6vectorINS0_8SwaptionESaIS5_EERKS4_INS0_3CapESaISA_EE(ptr noundef nonnull align 8 dereferenceable(192) %this, ptr noundef nonnull align 8 dereferenceable(43) %bumps, ptr noundef nonnull align 8 dereferenceable(24) %swaptions, ptr noundef nonnull align 8 dereferenceable(24) %caps)
  %multiplierCutOff_ = getelementptr inbounds nuw i8, ptr %this, i64 192
  store double %multiplierCutOff, ptr %multiplierCutOff_, align 8, !tbaa !111
  %tolerance_ = getelementptr inbounds nuw i8, ptr %this, i64 200
  store double %tolerance, ptr %tolerance_, align 8, !tbaa !113
  ret void
}